target datalayout = "e-m:e-p270:32:32-p271:32:32-p272:64:64-i64:64-i128:128-f80:128-n8:16:32:64-S128"
target triple = "x86_64-pc-linux-gnu"

%struct.block_iq4_xs = type { i16, i16, [4 x i8], [128 x i8] }

@kvalues_iq4nl = internal constant [16 x i8] c"\81\98\AD\BF\CF\DD\EA\F6\01\0D\19&5EYq", align 16
@ggml_table_f32_f16 = external global [65536 x float], align 16

; Function Attrs: inlinehint nounwind uwtable
define internal float @ggml_lookup_fp16_to_fp32(i16 noundef zeroext %0) #3 {
  %2 = alloca i16, align 2
  %3 = alloca i16, align 2
  store i16 %0, ptr %2, align 2, !tbaa !42
  call void @llvm.lifetime.start.p0(i64 2, ptr %3) #10
  call void @llvm.memcpy.p0.p0.i64(ptr align 2 %3, ptr align 2 %2, i64 2, i1 false)
  %4 = load i16, ptr %3, align 2, !tbaa !42
  %5 = zext i16 %4 to i64
  %6 = getelementptr inbounds nuw [65536 x float], ptr @ggml_table_f32_f16, i64 0, i64 %5
  %7 = load float, ptr %6, align 4, !tbaa !13
  call void @llvm.lifetime.end.p0(i64 2, ptr %3) #10
  ret float %7
}

; Function Attrs: nounwind uwtable
define void @dequantize_row_iq4_xs(ptr noalias noundef %0, ptr noalias noundef %1, i64 noundef %2) #0 {
  %4 = alloca ptr, align 8
  %5 = alloca ptr, align 8
  %6 = alloca i64, align 8
  %7 = alloca i64, align 8
  %8 = alloca i32, align 4
  %9 = alloca i32, align 4
  %10 = alloca ptr, align 8
  %11 = alloca float, align 4
  %12 = alloca i32, align 4
  %13 = alloca i32, align 4
  %14 = alloca float, align 4
  %15 = alloca i32, align 4
  store ptr %0, ptr %4, align 8, !tbaa !8
  store ptr %1, ptr %5, align 8, !tbaa !3
  store i64 %2, ptr %6, align 8, !tbaa !9
  call void @llvm.lifetime.start.p0(i64 8, ptr %7) #10
  %16 = load i64, ptr %6, align 8, !tbaa !9
  %17 = sdiv i64 %16, 256
  store i64 %17, ptr %7, align 8, !tbaa !9
  call void @llvm.lifetime.start.p0(i64 4, ptr %8) #10
  store i32 0, ptr %8, align 4, !tbaa !11
  br label %18

18:                                               ; preds = %132, %3
  %19 = load i32, ptr %8, align 4, !tbaa !11
  %20 = sext i32 %19 to i64
  %21 = load i64, ptr %7, align 8, !tbaa !9
  %22 = icmp slt i64 %20, %21
  br i1 %22, label %24, label %23

23:                                               ; preds = %18
  store i32 2, ptr %9, align 4
  call void @llvm.lifetime.end.p0(i64 4, ptr %8) #10
  br label %135

24:                                               ; preds = %18
  call void @llvm.lifetime.start.p0(i64 8, ptr %10) #10
  %25 = load ptr, ptr %4, align 8, !tbaa !8
  %26 = load i32, ptr %8, align 4, !tbaa !11
  %27 = sext i32 %26 to i64
  %28 = getelementptr inbounds %struct.block_iq4_xs, ptr %25, i64 %27
  %29 = getelementptr inbounds nuw %struct.block_iq4_xs, ptr %28, i32 0, i32 3
  %30 = getelementptr inbounds [128 x i8], ptr %29, i64 0, i64 0
  store ptr %30, ptr %10, align 8, !tbaa !61
  call void @llvm.lifetime.start.p0(i64 4, ptr %11) #10
  %31 = load ptr, ptr %4, align 8, !tbaa !8
  %32 = load i32, ptr %8, align 4, !tbaa !11
  %33 = sext i32 %32 to i64
  %34 = getelementptr inbounds %struct.block_iq4_xs, ptr %31, i64 %33
  %35 = getelementptr inbounds nuw %struct.block_iq4_xs, ptr %34, i32 0, i32 0
  %36 = load i16, ptr %35, align 2, !tbaa !298
  %37 = call float @ggml_lookup_fp16_to_fp32(i16 noundef zeroext %36)
  store float %37, ptr %11, align 4, !tbaa !13
  call void @llvm.lifetime.start.p0(i64 4, ptr %12) #10
  store i32 0, ptr %12, align 4, !tbaa !11
  br label %38

38:                                               ; preds = %128, %24
  %39 = load i32, ptr %12, align 4, !tbaa !11
  %40 = icmp slt i32 %39, 8
  br i1 %40, label %42, label %41

41:                                               ; preds = %38
  store i32 5, ptr %9, align 4
  call void @llvm.lifetime.end.p0(i64 4, ptr %12) #10
  br label %131

42:                                               ; preds = %38
  call void @llvm.lifetime.start.p0(i64 4, ptr %13) #10
  %43 = load ptr, ptr %4, align 8, !tbaa !8
  %44 = load i32, ptr %8, align 4, !tbaa !11
  %45 = sext i32 %44 to i64
  %46 = getelementptr inbounds %struct.block_iq4_xs, ptr %43, i64 %45
  %47 = getelementptr inbounds nuw %struct.block_iq4_xs, ptr %46, i32 0, i32 2
  %48 = load i32, ptr %12, align 4, !tbaa !11
  %49 = sdiv i32 %48, 2
  %50 = sext i32 %49 to i64
  %51 = getelementptr inbounds [4 x i8], ptr %47, i64 0, i64 %50
  %52 = load i8, ptr %51, align 1, !tbaa !20
  %53 = zext i8 %52 to i32
  %54 = load i32, ptr %12, align 4, !tbaa !11
  %55 = srem i32 %54, 2
  %56 = mul nsw i32 4, %55
  %57 = ashr i32 %53, %56
  %58 = and i32 %57, 15
  %59 = load ptr, ptr %4, align 8, !tbaa !8
  %60 = load i32, ptr %8, align 4, !tbaa !11
  %61 = sext i32 %60 to i64
  %62 = getelementptr inbounds %struct.block_iq4_xs, ptr %59, i64 %61
  %63 = getelementptr inbounds nuw %struct.block_iq4_xs, ptr %62, i32 0, i32 1
  %64 = load i16, ptr %63, align 2, !tbaa !300
  %65 = zext i16 %64 to i32
  %66 = load i32, ptr %12, align 4, !tbaa !11
  %67 = mul nsw i32 2, %66
  %68 = ashr i32 %65, %67
  %69 = and i32 %68, 3
  %70 = shl i32 %69, 4
  %71 = or i32 %58, %70
  store i32 %71, ptr %13, align 4, !tbaa !11
  call void @llvm.lifetime.start.p0(i64 4, ptr %14) #10
  %72 = load float, ptr %11, align 4, !tbaa !13
  %73 = load i32, ptr %13, align 4, !tbaa !11
  %74 = sub nsw i32 %73, 32
  %75 = sitofp i32 %74 to float
  %76 = fmul float %72, %75
  store float %76, ptr %14, align 4, !tbaa !13
  call void @llvm.lifetime.start.p0(i64 4, ptr %15) #10
  store i32 0, ptr %15, align 4, !tbaa !11
  br label %77

77:                                               ; preds = %120, %42
  %78 = load i32, ptr %15, align 4, !tbaa !11
  %79 = icmp slt i32 %78, 16
  br i1 %79, label %81, label %80

80:                                               ; preds = %77
  store i32 8, ptr %9, align 4
  call void @llvm.lifetime.end.p0(i64 4, ptr %15) #10
  br label %123

81:                                               ; preds = %77
  %82 = load float, ptr %14, align 4, !tbaa !13
  %83 = load ptr, ptr %10, align 8, !tbaa !61
  %84 = load i32, ptr %15, align 4, !tbaa !11
  %85 = sext i32 %84 to i64
  %86 = getelementptr inbounds i8, ptr %83, i64 %85
  %87 = load i8, ptr %86, align 1, !tbaa !20
  %88 = zext i8 %87 to i32
  %89 = and i32 %88, 15
  %90 = sext i32 %89 to i64
  %91 = getelementptr inbounds [16 x i8], ptr @kvalues_iq4nl, i64 0, i64 %90
  %92 = load i8, ptr %91, align 1, !tbaa !20
  %93 = sext i8 %92 to i32
  %94 = sitofp i32 %93 to float
  %95 = fmul float %82, %94
  %96 = load ptr, ptr %5, align 8, !tbaa !3
  %97 = load i32, ptr %15, align 4, !tbaa !11
  %98 = add nsw i32 %97, 0
  %99 = sext i32 %98 to i64
  %100 = getelementptr inbounds float, ptr %96, i64 %99
  store float %95, ptr %100, align 4, !tbaa !13
  %101 = load float, ptr %14, align 4, !tbaa !13
  %102 = load ptr, ptr %10, align 8, !tbaa !61
  %103 = load i32, ptr %15, align 4, !tbaa !11
  %104 = sext i32 %103 to i64
  %105 = getelementptr inbounds i8, ptr %102, i64 %104
  %106 = load i8, ptr %105, align 1, !tbaa !20
  %107 = zext i8 %106 to i32
  %108 = ashr i32 %107, 4
  %109 = sext i32 %108 to i64
  %110 = getelementptr inbounds [16 x i8], ptr @kvalues_iq4nl, i64 0, i64 %109
  %111 = load i8, ptr %110, align 1, !tbaa !20
  %112 = sext i8 %111 to i32
  %113 = sitofp i32 %112 to float
  %114 = fmul float %101, %113
  %115 = load ptr, ptr %5, align 8, !tbaa !3
  %116 = load i32, ptr %15, align 4, !tbaa !11
  %117 = add nsw i32 %116, 16
  %118 = sext i32 %117 to i64
  %119 = getelementptr inbounds float, ptr %115, i64 %118
  store float %114, ptr %119, align 4, !tbaa !13
  br label %120

120:                                              ; preds = %81
  %121 = load i32, ptr %15, align 4, !tbaa !11
  %122 = add nsw i32 %121, 1
  store i32 %122, ptr %15, align 4, !tbaa !11
  br label %77, !llvm.loop !301

123:                                              ; preds = %80
  %124 = load ptr, ptr %5, align 8, !tbaa !3
  %125 = getelementptr inbounds float, ptr %124, i64 32
  store ptr %125, ptr %5, align 8, !tbaa !3
  %126 = load ptr, ptr %10, align 8, !tbaa !61
  %127 = getelementptr inbounds i8, ptr %126, i64 16
  store ptr %127, ptr %10, align 8, !tbaa !61
  call void @llvm.lifetime.end.p0(i64 4, ptr %14) #10
  call void @llvm.lifetime.end.p0(i64 4, ptr %13) #10
  br label %128

128:                                              ; preds = %123
  %129 = load i32, ptr %12, align 4, !tbaa !11
  %130 = add nsw i32 %129, 1
  store i32 %130, ptr %12, align 4, !tbaa !11
  br label %38, !llvm.loop !302

131:                                              ; preds = %41
  call void @llvm.lifetime.end.p0(i64 4, ptr %11) #10
  call void @llvm.lifetime.end.p0(i64 8, ptr %10) #10
  br label %132

132:                                              ; preds = %131
  %133 = load i32, ptr %8, align 4, !tbaa !11
  %134 = add nsw i32 %133, 1
  store i32 %134, ptr %8, align 4, !tbaa !11
  br label %18, !llvm.loop !303

135:                                              ; preds = %23
  call void @llvm.lifetime.end.p0(i64 8, ptr %7) #10
  ret void
}