; Function Attrs: nofree norecurse nosync nounwind memory(read, argmem: readwrite, inaccessiblemem: none) uwtable
define void @dequantize_row_iq4_xs(ptr noalias noundef readonly captures(none) %0, ptr noalias noundef writeonly captures(none) %1, i64 noundef %2) local_unnamed_addr #4 {
  %4 = sdiv i64 %2, 256
  %5 = icmp sgt i64 %2, 255
  br i1 %5, label %.lr.ph, label %._crit_edge

._crit_edge:                                      ; preds = %16, %3
  ret void

.lr.ph:                                           ; preds = %3, %16
  %indvars.iv45 = phi i64 [ %indvars.iv.next46, %16 ], [ 0, %3 ]
  %.03242 = phi ptr [ %36, %16 ], [ %1, %3 ]
  %6 = getelementptr inbounds nuw %struct.block_iq4_xs, ptr %0, i64 %indvars.iv45
  %7 = getelementptr inbounds nuw i8, ptr %6, i64 8
  %8 = load i16, ptr %6, align 2, !tbaa !670
  %9 = zext i16 %8 to i64
  %10 = getelementptr inbounds nuw [65536 x float], ptr @ggml_table_f32_f16, i64 0, i64 %9
  %11 = load float, ptr %10, align 4, !tbaa !8
  %12 = getelementptr inbounds nuw i8, ptr %6, i64 4
  %13 = getelementptr inbounds nuw i8, ptr %6, i64 2
  %14 = load i16, ptr %13, align 2, !tbaa !672
  %15 = zext i16 %14 to i32
  br label %17

16:                                               ; preds = %35
  %indvars.iv.next46 = add nuw nsw i64 %indvars.iv45, 1
  %exitcond48.not = icmp eq i64 %indvars.iv.next46, %4
  br i1 %exitcond48.not, label %._crit_edge, label %.lr.ph, !llvm.loop !673

17:                                               ; preds = %.lr.ph, %35
  %.140 = phi ptr [ %.03242, %.lr.ph ], [ %36, %35 ]
  %.03439 = phi i32 [ 0, %.lr.ph ], [ %38, %35 ]
  %.03538 = phi ptr [ %7, %.lr.ph ], [ %37, %35 ]
  %18 = lshr i32 %.03439, 1
  %19 = zext nneg i32 %18 to i64
  %20 = getelementptr inbounds nuw [4 x i8], ptr %12, i64 0, i64 %19
  %21 = load i8, ptr %20, align 1, !tbaa !13
  %22 = zext i8 %21 to i32
  %23 = shl nuw nsw i32 %.03439, 2
  %24 = and i32 %23, 4
  %25 = lshr i32 %22, %24
  %26 = and i32 %25, 15
  %27 = shl nuw nsw i32 %.03439, 1
  %28 = lshr i32 %15, %27
  %29 = shl nuw nsw i32 %28, 4
  %30 = and i32 %29, 48
  %31 = or disjoint i32 %26, -32
  %32 = add nsw i32 %31, %30
  %33 = sitofp i32 %32 to float
  %34 = fmul float %11, %33
  br label %39

35:                                               ; preds = %39
  %36 = getelementptr inbounds nuw i8, ptr %.140, i64 128
  %37 = getelementptr inbounds nuw i8, ptr %.03538, i64 16
  %38 = add nuw nsw i32 %.03439, 1
  %exitcond44.not = icmp eq i32 %38, 8
  br i1 %exitcond44.not, label %16, label %17, !llvm.loop !674

39:                                               ; preds = %17, %39
  %indvars.iv = phi i64 [ 0, %17 ], [ %indvars.iv.next, %39 ]
  %40 = getelementptr inbounds nuw i8, ptr %.03538, i64 %indvars.iv
  %41 = load i8, ptr %40, align 1, !tbaa !13
  %42 = and i8 %41, 15
  %43 = zext nneg i8 %42 to i64
  %44 = getelementptr inbounds nuw [16 x i8], ptr @kvalues_iq4nl, i64 0, i64 %43
  %45 = load i8, ptr %44, align 1, !tbaa !13
  %46 = sitofp i8 %45 to float
  %47 = fmul float %34, %46
  %48 = getelementptr inbounds nuw float, ptr %.140, i64 %indvars.iv
  store float %47, ptr %48, align 4, !tbaa !8
  %49 = lshr i8 %41, 4
  %50 = zext nneg i8 %49 to i64
  %51 = getelementptr inbounds nuw [16 x i8], ptr @kvalues_iq4nl, i64 0, i64 %50
  %52 = load i8, ptr %51, align 1, !tbaa !13
  %53 = sitofp i8 %52 to float
  %54 = fmul float %34, %53
  %55 = or disjoint i64 %indvars.iv, 16
  %56 = getelementptr inbounds nuw float, ptr %.140, i64 %55
  store float %54, ptr %56, align 4, !tbaa !8
  %indvars.iv.next = add nuw nsw i64 %indvars.iv, 1
  %exitcond.not = icmp eq i64 %indvars.iv.next, 16
  br i1 %exitcond.not, label %35, label %39, !llvm.loop !675
}